target datalayout = "e-m:e-p270:32:32-p271:32:32-p272:64:64-i64:64-i128:128-f80:128-n8:16:32:64-S128"
target triple = "x86_64-unknown-linux-gnu"

%"class.sat::literal" = type { i32 }
%class.symbol = type { ptr }
%class.params_ref = type { ptr }
%"class.euf::th_solver" = type { %"class.sat::extension", %"class.euf::th_model_builder", %"class.euf::th_decompile", %"class.euf::th_internalizer", ptr }
%"class.sat::extension" = type { ptr, i8, i32, %class.symbol, ptr }
%"class.euf::th_model_builder" = type { ptr }
%"class.euf::th_decompile" = type { ptr }
%"class.euf::th_internalizer" = type { ptr, %class.ptr_vector, %class.svector }
%class.svector = type { %class.vector.0 }
%class.vector.0 = type { ptr }
%class.ptr_vector = type { %class.vector }
%class.vector = type { ptr }
%class.svector.1 = type { %class.vector.2 }
%class.vector.2 = type { ptr }
%class.th_rewriter = type { ptr, %class.params_ref }
%class.ptr_vector.3 = type { %class.vector.4 }
%class.vector.4 = type { ptr }
%class.bv_util = type { %class.bv_recognizers, ptr, ptr }
%class.bv_recognizers = type { i32 }
%class.arith_util = type { ptr, ptr }
%"class.datatype::util" = type { ptr, i32, ptr, %class.obj_map, %class.obj_map.5, %class.obj_map.10, %class.obj_map.15, %class.obj_map.15, %class.obj_map.15, %class.obj_map.20, %class.obj_map.20, %class.obj_map.20, %class.ref_vector, %class.ref_vector_core.27, %class.ptr_vector.30, i32, %class.ptr_vector.32 }
%class.obj_map = type { %class.core_hashtable }
%class.core_hashtable = type <{ ptr, i32, i32, i32, [4 x i8] }>
%class.obj_map.5 = type { %class.core_hashtable.6 }
%class.core_hashtable.6 = type <{ ptr, i32, i32, i32, [4 x i8] }>
%class.obj_map.10 = type { %class.core_hashtable.11 }
%class.core_hashtable.11 = type <{ ptr, i32, i32, i32, [4 x i8] }>
%class.obj_map.20 = type { %class.core_hashtable.21 }
%class.core_hashtable.21 = type <{ ptr, i32, i32, i32, [4 x i8] }>
%class.ref_vector = type { %class.ref_vector_core }
%class.ref_vector_core = type { %class.ref_manager_wrapper, %class.ptr_vector.25 }
%class.ref_manager_wrapper = type { ptr }
%class.ptr_vector.25 = type { %class.vector.26 }
%class.vector.26 = type { ptr }
%class.ref_vector_core.27 = type { %class.ptr_vector.28 }
%class.ptr_vector.28 = type { %class.vector.29 }
%class.vector.29 = type { ptr }
%class.ptr_vector.30 = type { %class.vector.31 }
%class.vector.31 = type { ptr }
%class.ptr_vector.32 = type { %class.vector.33 }
%class.vector.33 = type { ptr }
%class.seq_util = type { ptr, ptr, ptr, i32, [4 x i8], %"class.seq_util::str", %"class.seq_util::rex" }
%"class.seq_util::str" = type <{ ptr, ptr, i32, [4 x i8] }>
%"class.seq_util::rex" = type { ptr, ptr, i32, %class.vector.34, %class.ref_vector.35, %"struct.seq_util::rex::info", %"struct.seq_util::rex::info" }
%class.vector.34 = type { ptr }
%"struct.seq_util::rex::info" = type { i32, i8, i32, i32 }
%class.fpa_util = type { ptr, ptr, i32, %class.arith_util, %class.bv_util }
%class.obj_map.15 = type { %class.core_hashtable.16 }
%class.core_hashtable.16 = type <{ ptr, i32, i32, i32, [4 x i8] }>
%class.ref_vector.35 = type { %class.ref_vector_core.36 }
%class.ref_vector_core.36 = type { %class.ref_manager_wrapper.37, %class.ptr_vector.3 }
%class.ref_manager_wrapper.37 = type { ptr }
%"class.euf::solver" = type { %"class.sat::extension", %"class.euf::th_internalizer", %"class.euf::th_decompile", %"struct.sat::clause_eh", %"class.std::function", %"class.std::function.72", ptr, ptr, %"class.euf::relevancy", %struct.smt_params, %"struct.euf::solver::local_search_config", %"class.euf::egraph", %class.trail_stack, %"struct.euf::solver::stats", %class.th_rewriter, %class.ref_vector.95, ptr, ptr, ptr, %class.scoped_ptr, ptr, ptr, ptr, i32, %"class.std::__cxx11::basic_string", %class.ptr_vector.3, %class.ptr_vector.3, %class.ptr_vector.122, %class.svector.124, %class.svector.126, %class.svector.128, i32, %class.svector.1, %class.svector.130, %class.scoped_ptr_vector.132, %class.ptr_vector.133, ptr, ptr, i8, %class.ast_pp_util, i8, [7 x i8], %"class.euf::smt_proof_checker", %class.svector.128, %class.svector.214, %class.svector.214, %class.svector.214, i32, i32, i32, i32, i32, i32, i32, i32, %class.symbol, %class.symbol, %class.ref_vector.35, %class.ref_vector.35, %class.vector.216, %class.ref_vector.35, %class.obj_map.217, %class.ref, %class.scoped_ptr.222 }
%"struct.sat::clause_eh" = type { ptr }
%"class.std::function" = type { %"class.std::_Function_base", ptr }
%"class.std::_Function_base" = type { %"union.std::_Any_data", ptr }
%"union.std::_Any_data" = type { %"union.std::_Nocopy_types" }
%"union.std::_Nocopy_types" = type { { i64, i64 } }
%"class.std::function.72" = type { %"class.std::_Function_base", ptr }
%"class.euf::relevancy" = type { ptr, i8, %class.svector.74, %class.svector.1, i32, %class.svector.76, %"class.sat::clause_allocator", %class.ptr_vector.82, %class.svector.76, %class.vector.84, i32, %class.svector.85, %class.ptr_vector, %class.ptr_vector }
%class.svector.74 = type { %class.vector.75 }
%class.vector.75 = type { ptr }
%"class.sat::clause_allocator" = type { %class.sat_allocator, %class.id_gen }
%class.sat_allocator = type { ptr, i64, %class.ptr_vector.78, ptr, [65 x %class.ptr_vector.80] }
%class.ptr_vector.78 = type { %class.vector.79 }
%class.vector.79 = type { ptr }
%class.ptr_vector.80 = type { %class.vector.81 }
%class.vector.81 = type { ptr }
%class.id_gen = type { i32, %class.svector.1 }
%class.ptr_vector.82 = type { %class.vector.83 }
%class.vector.83 = type { ptr }
%class.svector.76 = type { %class.vector.77 }
%class.vector.77 = type { ptr }
%class.vector.84 = type { ptr }
%class.svector.85 = type { %class.vector.86 }
%class.vector.86 = type { ptr }
%struct.smt_params = type { %struct.preprocessor_params.base, %struct.dyn_ack_params, %struct.qi_params, %struct.theory_arith_params.base, i8, %struct.theory_array_params.base, %struct.theory_bv_params, %struct.theory_str_params.base, %struct.theory_seq_params, %struct.theory_pb_params.base, %struct.theory_datatype_params, i8, i8, i8, i8, i8, i8, i32, i8, i32, double, double, i32, i32, i32, i32, i32, i8, i32, i32, i32, i32, i32, i32, i8, i32, i8, i8, i8, i8, i8, %class.symbol, i32, i32, i8, i8, i8, i8, i32, i8, i32, i32, double, i8, double, double, i32, i8, i32, i32, double, i32, i32, i32, i32, i32, double, i8, i8, i8, %class.symbol, i8, i8, i8, i8, i8, i8, i32, i8, i8, i8, i8, i8, i8, i8, i8, i8, double, i8, %class.symbol }
%struct.preprocessor_params.base = type <{ %struct.pattern_inference_params.base, %struct.bit_blaster_params, i32, i32, i8, i8, i8, i8, i8, i8, i8, i8, i8, i8, i8, i8, i8, i8, i8, i8, i8, i8, i8 }>
%struct.pattern_inference_params.base = type <{ i8, [3 x i8], i32, i8, i8, [2 x i8], i32, i8, [3 x i8], i32, i32, i8, [3 x i8], i32, i8, i8 }>
%struct.bit_blaster_params = type { i8, i8 }
%struct.dyn_ack_params = type { i32, i8, double, i32, i32, double }
%struct.qi_params = type { %"class.std::__cxx11::basic_string", %"class.std::__cxx11::basic_string", double, double, i32, i32, i8, i32, i32, i8, i8, i32, i8, i8, i8, i8, i32, i32, i32, i8, i32, ptr }
%struct.theory_arith_params.base = type <{ i8, i8, [2 x i8], i32, i8, [3 x i8], i32, i8, [3 x i8], i32, i8, i8, [2 x i8], i32, i32, i8, i8, [2 x i8], i32, i32, i8, [3 x i8], i32, i32, i8, [3 x i8], double, double, i8, [3 x i8], i32, i8, i8, i8, i8, i8, [3 x i8], i32, i32, i8, [3 x i8], i32, i8, i8, i8, i8, i8, i8, [2 x i8], i32, i8, i8, [2 x i8], i32, i8, [3 x i8], i32, i8, i8, i8 }>
%struct.theory_array_params.base = type <{ i8, i8, [2 x i8], i32, i8, i8, [2 x i8], i32, i8, i8, i8, i8, i32, i8 }>
%struct.theory_bv_params = type { i32, i8, i8, i8, i8, i32, i8, i8, i8, i8, i32 }
%struct.theory_str_params.base = type <{ i8, i8, i8, i8, i8, i8, i8, i8, double, i32, i32, i32, i32, i32, i8, i8 }>
%struct.theory_seq_params = type { i8, i8, i32, i32 }
%struct.theory_pb_params.base = type <{ i32, i8 }>
%struct.theory_datatype_params = type { i32 }
%"struct.euf::solver::local_search_config" = type { double, i32, i32, i32, double }
%"class.euf::egraph" = type { ptr, %class.svector.87, %"class.euf::etable", %class.region, %class.scoped_ptr_vector, %class.svector.93, %class.svector.1, %class.ptr_vector, ptr, ptr, i32, %class.tmp_app, %class.ptr_vector, %class.ref_vector.35, %class.ref_vector.95, %class.vector.100, %class.ptr_vector, i32, i8, ptr, ptr, %"class.euf::justification", i32, %class.svector.103, %class.svector.76, %class.ptr_vector, %"struct.euf::egraph::stats", i8, i8, i64, %"class.std::vector", %"class.std::function.108", %"class.std::function.110", %"class.std::function.112", %"class.std::function.114", %"class.std::function.117" }
%class.svector.87 = type { %class.vector.88 }
%class.vector.88 = type { ptr }
%"class.euf::etable" = type { ptr, i8, %class.ptr_vector.80, %class.map }
%class.map = type { %class.table2map }
%class.table2map = type { %class.core_hashtable.89 }
%class.core_hashtable.89 = type <{ ptr, i32, i32, i32, [4 x i8] }>
%class.region = type { ptr, ptr, ptr, ptr, ptr }
%class.scoped_ptr_vector = type { %class.ptr_vector.91 }
%class.ptr_vector.91 = type { %class.vector.92 }
%class.vector.92 = type { ptr }
%class.svector.93 = type { %class.vector.94 }
%class.vector.94 = type { ptr }
%class.tmp_app = type { i32, ptr }
%class.vector.100 = type { ptr }
%"class.euf::justification" = type { i32, %union.anon.101, %union.anon.102 }
%union.anon.101 = type { ptr }
%union.anon.102 = type { ptr }
%class.svector.103 = type { %class.vector.104 }
%class.vector.104 = type { ptr }
%"struct.euf::egraph::stats" = type { i32, i32, i32, i32, i32, i32 }
%"class.std::vector" = type { %"struct.std::_Vector_base" }
%"struct.std::_Vector_base" = type { %"struct.std::_Vector_base<std::function<void (euf::enode *, euf::enode *)>, std::allocator<std::function<void (euf::enode *, euf::enode *)>>>::_Vector_impl" }
%"struct.std::_Vector_base<std::function<void (euf::enode *, euf::enode *)>, std::allocator<std::function<void (euf::enode *, euf::enode *)>>>::_Vector_impl" = type { %"struct.std::_Vector_base<std::function<void (euf::enode *, euf::enode *)>, std::allocator<std::function<void (euf::enode *, euf::enode *)>>>::_Vector_impl_data" }
%"struct.std::_Vector_base<std::function<void (euf::enode *, euf::enode *)>, std::allocator<std::function<void (euf::enode *, euf::enode *)>>>::_Vector_impl_data" = type { ptr, ptr, ptr }
%"class.std::function.108" = type { %"class.std::_Function_base", ptr }
%"class.std::function.110" = type { %"class.std::_Function_base", ptr }
%"class.std::function.112" = type { %"class.std::_Function_base", ptr }
%"class.std::function.114" = type { %"class.std::_Function_base", ptr }
%"class.std::function.117" = type { %"class.std::_Function_base", ptr }
%class.trail_stack = type { %class.ptr_vector.120, %class.svector.1, %class.region }
%class.ptr_vector.120 = type { %class.vector.121 }
%class.vector.121 = type { ptr }
%"struct.euf::solver::stats" = type { i32, i32 }
%class.ref_vector.95 = type { %class.ref_vector_core.96 }
%class.ref_vector_core.96 = type { %class.ref_manager_wrapper.97, %class.ptr_vector.98 }
%class.ref_manager_wrapper.97 = type { ptr }
%class.ptr_vector.98 = type { %class.vector.99 }
%class.vector.99 = type { ptr }
%class.scoped_ptr = type { ptr }
%"class.std::__cxx11::basic_string" = type { %"struct.std::__cxx11::basic_string<char>::_Alloc_hider", i64, %union.anon }
%"struct.std::__cxx11::basic_string<char>::_Alloc_hider" = type { ptr }
%union.anon = type { i64, [8 x i8] }
%class.ptr_vector.122 = type { %class.vector.123 }
%class.vector.123 = type { ptr }
%class.svector.124 = type { %class.vector.125 }
%class.vector.125 = type { ptr }
%class.svector.126 = type { %class.vector.127 }
%class.vector.127 = type { ptr }
%class.svector.130 = type { %class.vector.131 }
%class.vector.131 = type { ptr }
%class.scoped_ptr_vector.132 = type { %class.ptr_vector.133 }
%class.ptr_vector.133 = type { %class.vector.134 }
%class.vector.134 = type { ptr }
%class.ast_pp_util = type { ptr, %class.obj_hashtable.135, %class.smt2_pp_environment_dbg, %class.stacked_value, %class.stacked_value, %class.stacked_value, %class.obj_mark, %class.ref_vector.35, %class.svector.1, %class.decl_collector }
%class.obj_hashtable.135 = type { %class.core_hashtable.base.139, [4 x i8] }
%class.core_hashtable.base.139 = type <{ ptr, i32, i32, i32 }>
%class.smt2_pp_environment_dbg = type { %class.smt2_pp_environment, ptr, %class.arith_util, %class.bv_util, %class.array_util, %class.fpa_util, %class.seq_util, %"class.datatype::util", %"class.datalog::dl_decl_util" }
%class.smt2_pp_environment = type { ptr, %class.smt_renaming }
%class.smt_renaming = type { %class.map.141, %class.map.145 }
%class.map.141 = type { %class.table2map.142 }
%class.table2map.142 = type { %class.core_hashtable.143 }
%class.core_hashtable.143 = type <{ ptr, i32, i32, i32, [4 x i8] }>
%class.map.145 = type { %class.table2map.146 }
%class.table2map.146 = type { %class.core_hashtable.147 }
%class.core_hashtable.147 = type <{ ptr, i32, i32, i32, [4 x i8] }>
%class.array_util = type { %class.array_recognizers, ptr }
%class.array_recognizers = type { i32 }
%"class.datalog::dl_decl_util" = type <{ ptr, %class.scoped_ptr.149, %class.scoped_ptr.150, i32, [4 x i8] }>
%class.scoped_ptr.149 = type { ptr }
%class.scoped_ptr.150 = type { ptr }
%class.stacked_value = type { i32, %class.vector.151 }
%class.vector.151 = type { ptr }
%class.obj_mark = type { %struct.default_t2uint, %class.bit_vector }
%struct.default_t2uint = type { i8 }
%class.bit_vector = type { i32, i32, ptr }
%class.decl_collector = type { ptr, %class.lim_svector, %class.lim_svector.153, %class.lim_svector.153, %class.ast_mark, %class.ref_vector, %class.svector.1, i32, i32, %"class.datatype::util", %class.array_util, i32, %class.ptr_vector.25 }
%class.lim_svector = type { %class.svector.152, %class.svector.1 }
%class.svector.152 = type { %class.vector.33 }
%class.lim_svector.153 = type { %class.svector.154, %class.svector.1 }
%class.svector.154 = type { %class.vector.99 }
%class.ast_mark = type { ptr, %class.obj_mark, %class.obj_mark.155 }
%class.obj_mark.155 = type { %"struct.ast_mark::decl2uint", %class.bit_vector }
%"struct.ast_mark::decl2uint" = type { i8 }
%"class.euf::smt_proof_checker" = type <{ ptr, %class.params_ref, %"class.euf::theory_checker", %class.scoped_ptr.163, %class.symbol, %"class.sat::solver", %"class.sat::drat", %class.svector.128, %class.svector.128, i8, [7 x i8], %class.map.210, %class.map.210, i32, [4 x i8] }>
%"class.euf::theory_checker" = type { ptr, %class.scoped_ptr_vector.156, %class.map.159 }
%class.scoped_ptr_vector.156 = type { %class.ptr_vector.157 }
%class.ptr_vector.157 = type { %class.vector.158 }
%class.vector.158 = type { ptr }
%class.map.159 = type { %class.table2map.160 }
%class.table2map.160 = type { %class.core_hashtable.161 }
%class.core_hashtable.161 = type <{ ptr, i32, i32, i32, [4 x i8] }>
%class.scoped_ptr.163 = type { ptr }
%"class.sat::solver" = type { %"class.sat::solver_core", i8, [7 x i8], %"struct.sat::config", %"struct.sat::stats", %class.scoped_ptr.164, %class.scoped_ptr.165, ptr, %"class.sat::drat", [2 x %"class.sat::clause_allocator"], i8, %class.random_gen, %"class.sat::cleaner", %class.svector.172, %"class.sat::model_converter", i8, %"class.sat::simplifier", %"class.sat::scc", %"class.sat::asymm_branch", %"class.sat::probing", i8, [7 x i8], %"class.sat::mus", %"class.sat::binspr", i8, i8, [6 x i8], %"class.sat::justification", %"class.sat::literal", %class.ptr_vector.82, %class.ptr_vector.82, i32, %class.svector.1, %class.svector.1, %class.svector.1, %class.svector.1, %class.vector.195, %class.svector.172, %class.svector.196, %class.svector.76, %class.svector.76, %class.svector.76, %class.svector.76, %class.svector.76, %class.svector.1, %class.svector.1, i32, %class.svector.128, %class.svector.1, i32, %class.svector.198, %class.svector.198, %class.svector.198, %class.svector.198, %class.svector.198, i32, double, %class.svector.76, %class.svector.76, %class.svector.76, %class.svector.181, i32, i32, i32, i32, i32, i32, %"struct.sat::backoff", i32, i32, %"struct.sat::backoff", %"struct.sat::backoff", %class.var_queue, i32, i32, i32, %class.ema, %class.ema, %class.ema, %class.ema, %class.ema, %class.svector.128, %class.svector.183, %"class.std::__cxx11::basic_string", i8, %class.visit_helper, %class.svector.200, %class.scoped_limit_trail, %class.stopwatch, %class.params_ref, %"struct.sat::no_drat_params", %class.scoped_ptr.193, %class.svector.128, %"class.sat::literal_set", %"class.sat::literal_set", %class.svector.128, i32, i32, i32, i32, i8, ptr, ptr, %class.statistics, i32, i32, i32, i32, i8, i32, i32, i32, i32, i32, i32, i32, double, i32, double, i8, i8, %class.svector.128, i8, %class.svector.198, i32, i32, i32, %class.svector.128, %class.svector.128, %class.svector.181, %class.svector.1, %class.approx_set_tpl, %class.svector.128, %class.svector.128, %class.vector.84, %class.svector.128, %class.svector.191, %class.u_map, %class.svector.128 }
%"class.sat::solver_core" = type { ptr, ptr }
%"struct.sat::config" = type <{ i64, i32, i32, i32, i8, [3 x i8], i32, i32, double, i32, i8, [3 x i8], i32, i8, [3 x i8], i32, [4 x i8], double, double, i32, i32, double, double, i32, [4 x i8], %class.symbol, double, i32, i32, i8, [3 x i8], i32, i32, i8, [3 x i8], i32, i8, [3 x i8], i32, i8, [3 x i8], i32, i8, i8, i8, i8, i32, i8, i8, i8, i8, i8, i8, i8, i8, i32, i8, i8, i8, i8, i32, double, i32, [4 x i8], double, double, double, double, i32, i8, i8, [2 x i8], double, i8, i8, [2 x i8], i32, double, i32, i32, i32, i32, i32, i32, i32, i32, i8, i8, i8, i8, i32, i32, i8, i8, i8, i8, i8, i8, i8, [5 x i8], %class.symbol, i8, i8, i8, i8, i8, i8, [2 x i8], i32, i32, i32, i8, [3 x i8], double, double, double, double, double, i8, [7 x i8] }>
%"struct.sat::stats" = type { i32, i32, i32, i32, i32, i32, i32, i32, i32, i32, i32, i32, i32, i32, i32, i32, i32, i32, i32, i32, i32 }
%class.scoped_ptr.164 = type { ptr }
%class.scoped_ptr.165 = type { ptr }
%class.random_gen = type { i32 }
%"class.sat::cleaner" = type { ptr, i32, i32, i32, i32 }
%"class.sat::model_converter" = type { %class.vector.174, i32, %class.svector.76, ptr, %class.svector.175 }
%class.vector.174 = type { ptr }
%class.svector.175 = type { %class.vector.176 }
%class.vector.176 = type { ptr }
%"class.sat::simplifier" = type { ptr, i32, %"class.sat::use_list", %"class.sat::ext_use_list", %"class.sat::clause_set", %class.svector.179, i32, %class.tracked_uint_set, i8, %"class.sat::tmp_clause", %class.svector.181, i32, i32, i8, i8, i8, i8, i32, i8, i8, i32, i8, i32, i8, i8, i32, i32, i32, i32, i32, i32, i32, i32, i32, i32, i8, i32, i8, i8, i32, i32, i32, i32, i32, i32, i32, i32, i32, i32, i32, i8, i32, %class.ptr_vector.82, %class.svector.128, %class.svector.183, %class.svector.183, %class.svector.128 }
%"class.sat::use_list" = type { %class.vector.177 }
%class.vector.177 = type { ptr }
%"class.sat::ext_use_list" = type { %class.vector.178 }
%class.vector.178 = type { ptr }
%"class.sat::clause_set" = type { %class.svector.1, %class.ptr_vector.82 }
%class.svector.179 = type { %class.vector.180 }
%class.vector.180 = type { ptr }
%class.tracked_uint_set = type { %class.svector.181, %class.svector.1 }
%"class.sat::tmp_clause" = type { ptr }
%"class.sat::scc" = type { ptr, i8, i8, i32, i32, %"class.sat::big" }
%"class.sat::big" = type { ptr, i32, %class.vector.185, %class.svector.76, %class.svector.186, %class.svector.186, %class.svector.128, %class.svector.128, i8, i8, %class.vector.185 }
%class.svector.186 = type { %class.vector.187 }
%class.vector.187 = type { ptr }
%class.vector.185 = type { ptr }
%"class.sat::asymm_branch" = type { ptr, %class.params_ref, i64, %class.random_gen, i32, i32, i8, i32, i32, i8, i8, i64, i32, i32, i32, %class.svector.128, %class.svector.128, %class.svector.188, %class.svector.188, %class.svector.128, %class.svector.128 }
%class.svector.188 = type { %class.vector.189 }
%class.vector.189 = type { ptr }
%"class.sat::probing" = type { ptr, i32, %"class.sat::literal_set", %class.svector.128, i32, i8, i32, i8, i8, i64, i32, %class.vector.190, %class.svector.191, %"class.sat::big" }
%class.vector.190 = type { ptr }
%"class.sat::mus" = type <{ ptr, %class.svector.128, %class.svector.128, i8, [7 x i8], %class.svector.172, i32, [4 x i8] }>
%"class.sat::binspr" = type <{ ptr, %class.scoped_ptr.193, i32, i32, %class.vector.194, i32, i32, %class.svector.76, %class.svector.76, %class.svector.128, %class.svector.128, i32, i32, i32, i32, i32, [4 x i32], [5 x i32], [5 x i32], [4 x i8] }>
%class.vector.194 = type { ptr }
%"class.sat::justification" = type <{ i32, [4 x i8], i64, i32, [4 x i8] }>
%class.vector.195 = type { ptr }
%class.svector.172 = type { %class.vector.173 }
%class.vector.173 = type { ptr }
%class.svector.196 = type { %class.vector.197 }
%class.vector.197 = type { ptr }
%"struct.sat::backoff" = type { i32, i32, i32, i32, i32 }
%class.var_queue = type { %class.heap }
%class.heap = type { %"struct.var_queue<svector<unsigned int>>::lt", %class.svector.186, %class.svector.186 }
%"struct.var_queue<svector<unsigned int>>::lt" = type { ptr }
%class.ema = type { double, double, double, i32, i32 }
%class.svector.183 = type { %class.vector.184 }
%class.vector.184 = type { ptr }
%class.visit_helper = type { %class.svector.1, i32, i32 }
%class.svector.200 = type { %class.vector.201 }
%class.vector.201 = type { ptr }
%class.scoped_limit_trail = type { %class.svector.1, i32, i32 }
%class.stopwatch = type <{ %"class.std::chrono::time_point", %"class.std::chrono::duration", i8, [7 x i8] }>
%"class.std::chrono::time_point" = type { %"class.std::chrono::duration" }
%"class.std::chrono::duration" = type { i64 }
%"struct.sat::no_drat_params" = type { %class.params_ref }
%class.scoped_ptr.193 = type { ptr }
%"class.sat::literal_set" = type { %class.tracked_uint_set }
%class.statistics = type { %class.svector.202, %class.svector.204 }
%class.svector.202 = type { %class.vector.203 }
%class.vector.203 = type { ptr }
%class.svector.204 = type { %class.vector.205 }
%class.vector.205 = type { ptr }
%class.svector.198 = type { %class.vector.199 }
%class.vector.199 = type { ptr }
%class.svector.181 = type { %class.vector.182 }
%class.vector.182 = type { ptr }
%class.approx_set_tpl = type { i32 }
%class.svector.191 = type { %class.vector.192 }
%class.vector.192 = type { ptr }
%class.u_map = type { %class.map.206 }
%class.map.206 = type { %class.table2map.207 }
%class.table2map.207 = type { %class.core_hashtable.208 }
%class.core_hashtable.208 = type <{ ptr, i32, i32, i32, [4 x i8] }>
%"class.sat::drat" = type { ptr, %class.svector.166, ptr, %"class.sat::clause_allocator", ptr, ptr, %class.svector.168, %class.svector.170, %class.vector.84, %class.svector.172, i8, i8, i8, i8, i8, %"struct.sat::drat::stats" }
%class.svector.166 = type { %class.vector.167 }
%class.vector.167 = type { ptr }
%class.svector.168 = type { %class.vector.169 }
%class.vector.169 = type { ptr }
%class.svector.170 = type { %class.vector.171 }
%class.vector.171 = type { ptr }
%"struct.sat::drat::stats" = type { i32, i32, i32, i32 }
%class.map.210 = type { %class.table2map.211 }
%class.table2map.211 = type { %class.core_hashtable.212 }
%class.core_hashtable.212 = type <{ ptr, i32, i32, i32, [4 x i8] }>
%class.svector.128 = type { %class.vector.129 }
%class.vector.129 = type { ptr }
%class.svector.214 = type { %class.vector.215 }
%class.vector.215 = type { ptr }
%class.vector.216 = type { ptr }
%class.obj_map.217 = type { %class.core_hashtable.218 }
%class.core_hashtable.218 = type <{ ptr, i32, i32, i32, [4 x i8] }>
%class.ref = type { ptr }
%class.scoped_ptr.222 = type { ptr }
%"class.euf::th_euf_solver" = type <{ %"class.euf::th_solver", ptr, %class.ptr_vector, %class.svector.1, i32, [4 x i8] }>

; Function Attrs: mustprogress nounwind uwtable
define linkonce_odr hidden noundef i32 @_ZNK3sat9extension6get_idEv(ptr noundef nonnull align 8 dereferenceable(32) %this) #4 comdat align 2 {
entry:
  %this.addr = alloca ptr, align 8
  store ptr %this, ptr %this.addr, align 8
  %this1 = load ptr, ptr %this.addr, align 8
  %m_id = getelementptr inbounds %"class.sat::extension", ptr %this1, i32 0, i32 2
  %0 = load i32, ptr %m_id, align 4
  ret i32 %0
}

; Function Attrs: mustprogress uwtable
define linkonce_odr hidden void @_ZN3euf6solver13attach_th_varEPNS_5enodeEPNS_9th_solverEi(ptr noundef nonnull align 8 dereferenceable(9136) %this, ptr noundef %n, ptr noundef %th, i32 noundef %v) #5 comdat align 2 {
entry:
  %this.addr = alloca ptr, align 8
  %n.addr = alloca ptr, align 8
  %th.addr = alloca ptr, align 8
  %v.addr = alloca i32, align 4
  store ptr %this, ptr %this.addr, align 8
  store ptr %n, ptr %n.addr, align 8
  store ptr %th, ptr %th.addr, align 8
  store i32 %v, ptr %v.addr, align 4
  %this1 = load ptr, ptr %this.addr, align 8
  %m_egraph = getelementptr inbounds %"class.euf::solver", ptr %this1, i32 0, i32 11
  %0 = load ptr, ptr %n.addr, align 8
  %1 = load i32, ptr %v.addr, align 4
  %2 = load ptr, ptr %th.addr, align 8
  %call = call noundef i32 @_ZNK3sat9extension6get_idEv(ptr noundef nonnull align 8 dereferenceable(32) %2)
  call void @_ZN3euf6egraph10add_th_varEPNS_5enodeEii(ptr noundef nonnull align 8 dereferenceable(536) %m_egraph, ptr noundef %0, i32 noundef %1, i32 noundef %call)
  ret void
}

; Function Attrs: mustprogress uwtable
define hidden void @_ZN3fpa6solver17attach_new_th_varEPN3euf5enodeE(ptr noundef nonnull align 8 dereferenceable(1556) %this, ptr noundef %n) #5 align 2 {
entry:
  %this.addr = alloca ptr, align 8
  %n.addr = alloca ptr, align 8
  %v = alloca i32, align 4
  store ptr %this, ptr %this.addr, align 8
  store ptr %n, ptr %n.addr, align 8
  %this1 = load ptr, ptr %this.addr, align 8
  %0 = load ptr, ptr %n.addr, align 8
  %vtable = load ptr, ptr %this1, align 8
  %vfn = getelementptr inbounds ptr, ptr %vtable, i64 64
  %1 = load ptr, ptr %vfn, align 8
  %call = call noundef i32 %1(ptr noundef nonnull align 8 dereferenceable(108) %this1, ptr noundef %0)
  store i32 %call, ptr %v, align 4
  %ctx = getelementptr inbounds %"class.euf::th_euf_solver", ptr %this1, i32 0, i32 1
  %2 = load ptr, ptr %ctx, align 8
  %3 = load ptr, ptr %n.addr, align 8
  %4 = load i32, ptr %v, align 4
  call void @_ZN3euf6solver13attach_th_varEPNS_5enodeEPNS_9th_solverEi(ptr noundef nonnull align 8 dereferenceable(9136) %2, ptr noundef %3, ptr noundef %this1, i32 noundef %4)
  ret void
}