; Function Attrs: mustprogress uwtable
define hidden void @_ZN3fpa6solver17attach_new_th_varEPN3euf5enodeE(ptr noundef nonnull align 8 dereferenceable(1556) %this, ptr noundef %n) local_unnamed_addr #3 align 2 {
entry:
  %vtable = load ptr, ptr %this, align 8
  %vfn = getelementptr inbounds i8, ptr %vtable, i64 512
  %0 = load ptr, ptr %vfn, align 8
  %call = tail call noundef i32 %0(ptr noundef nonnull align 8 dereferenceable(108) %this, ptr noundef %n)
  %ctx = getelementptr inbounds i8, ptr %this, i64 80
  %1 = load ptr, ptr %ctx, align 8
  %m_egraph.i = getelementptr inbounds i8, ptr %1, i64 1656
  %m_id.i.i = getelementptr inbounds i8, ptr %this, i64 12
  %2 = load i32, ptr %m_id.i.i, align 4
  tail call void @_ZN3euf6egraph10add_th_varEPNS_5enodeEii(ptr noundef nonnull align 8 dereferenceable(536) %m_egraph.i, ptr noundef %n, i32 noundef %call, i32 noundef %2)
  ret void
}